target datalayout = "e-m:e-p270:32:32-p271:32:32-p272:64:64-i64:64-i128:128-f80:128-n8:16:32:64-S128"
target triple = "x86_64-pc-linux-gnu"

%"class.boost::container::pmr::monotonic_buffer_resource" = type { %"class.boost::container::pmr::memory_resource", %"class.boost::container::pmr::block_slist", ptr, i64, i64, ptr, i64 }
%"class.boost::container::pmr::memory_resource" = type { ptr }
%"class.boost::container::pmr::block_slist" = type { %"class.boost::container::pmr::block_slist_base", ptr }
%"class.boost::container::pmr::block_slist_base" = type { %"struct.boost::container::pmr::slist_node" }
%"struct.boost::container::pmr::slist_node" = type { ptr }

; Function Attrs: mustprogress nounwind uwtable
define linkonce_odr hidden noundef i64 @_ZN5boost9intrusive6detail20builtin_clz_dispatchImE4callEm(i64 noundef %0) #0 comdat align 2 {
  %2 = alloca i64, align 8
  store i64 %0, ptr %2, align 8, !tbaa !14
  %3 = load i64, ptr %2, align 8, !tbaa !14
  %4 = call i64 @llvm.ctlz.i64(i64 %3, i1 true)
  %5 = trunc i64 %4 to i32
  %6 = sext i32 %5 to i64
  ret i64 %6
}

; Function Attrs: inlinehint mustprogress uwtable
define linkonce_odr hidden noundef i64 @_ZN5boost9intrusive6detail10floor_log2Em(i64 noundef %0) #3 comdat {
  %2 = alloca i64, align 8
  store i64 %0, ptr %2, align 8, !tbaa !14
  %3 = load i64, ptr %2, align 8, !tbaa !14
  %4 = call noundef i64 @_ZN5boost9intrusive6detail20builtin_clz_dispatchImE4callEm(i64 noundef %3)
  %5 = sub i64 63, %4
  ret i64 %5
}

; Function Attrs: mustprogress nounwind uwtable
define linkonce_odr hidden void @_ZN5boost9container3pmr17slist_node_traits8set_nextERKPNS1_10slist_nodeES6_(ptr noundef nonnull align 8 dereferenceable(8) %0, ptr noundef nonnull align 8 dereferenceable(8) %1) #0 comdat align 2 {
  %3 = alloca ptr, align 8
  %4 = alloca ptr, align 8
  store ptr %0, ptr %3, align 8, !tbaa !3
  store ptr %1, ptr %4, align 8, !tbaa !3
  %5 = load ptr, ptr %4, align 8, !tbaa !3
  %6 = load ptr, ptr %5, align 8, !tbaa !3
  %7 = load ptr, ptr %3, align 8, !tbaa !3
  %8 = load ptr, ptr %7, align 8, !tbaa !3
  %9 = getelementptr inbounds nuw %"struct.boost::container::pmr::slist_node", ptr %8, i32 0, i32 0
  store ptr %6, ptr %9, align 8, !tbaa !22
  ret void
}

; Function Attrs: inlinehint mustprogress uwtable
define linkonce_odr hidden noundef i64 @_ZN5boost9intrusive6detail9ceil_log2Em(i64 noundef %0) #3 comdat {
  %2 = alloca i64, align 8
  store i64 %0, ptr %2, align 8, !tbaa !14
  %3 = load i64, ptr %2, align 8, !tbaa !14
  %4 = call noundef zeroext i1 @_ZN5boost9intrusive6detail7is_pow2Em(i64 noundef %3)
  %5 = xor i1 %4, true
  %6 = zext i1 %5 to i64
  %7 = load i64, ptr %2, align 8, !tbaa !14
  %8 = call noundef i64 @_ZN5boost9intrusive6detail10floor_log2Em(i64 noundef %7)
  %9 = add i64 %6, %8
  ret i64 %9
}

; Function Attrs: inlinehint mustprogress nounwind uwtable
define linkonce_odr hidden void @_ZN5boost9intrusive23linear_slist_algorithmsINS_9container3pmr17slist_node_traitsEE11init_headerEPNS3_10slist_nodeE(ptr noundef %0) #2 comdat align 2 personality ptr @__gxx_personality_v0 {
  %2 = alloca ptr, align 8
  %3 = alloca ptr, align 8
  store ptr %0, ptr %2, align 8, !tbaa !3
  call void @llvm.lifetime.start.p0(i64 8, ptr %3) #11
  store ptr null, ptr %3, align 8, !tbaa !3
  invoke void @_ZN5boost9container3pmr17slist_node_traits8set_nextERKPNS1_10slist_nodeES6_(ptr noundef nonnull align 8 dereferenceable(8) %2, ptr noundef nonnull align 8 dereferenceable(8) %3)
          to label %4 unwind label %5

4:                                                ; preds = %1
  call void @llvm.lifetime.end.p0(i64 8, ptr %3) #11
  ret void

5:                                                ; preds = %1
  %6 = landingpad { ptr, i32 }
          catch ptr null
  %7 = extractvalue { ptr, i32 } %6, 0
  call void @__clang_call_terminate(ptr %7) #12
  unreachable
}

; Function Attrs: inlinehint mustprogress uwtable
define linkonce_odr hidden noundef i64 @_ZN5boost9intrusive6detail9ceil_pow2Em(i64 noundef %0) #3 comdat {
  %2 = alloca i64, align 8
  store i64 %0, ptr %2, align 8, !tbaa !14
  %3 = load i64, ptr %2, align 8, !tbaa !14
  %4 = call noundef i64 @_ZN5boost9intrusive6detail9ceil_log2Em(i64 noundef %3)
  %5 = shl i64 1, %4
  ret i64 %5
}

; Function Attrs: inlinehint mustprogress nounwind uwtable
define linkonce_odr hidden noundef zeroext i1 @_ZN5boost9intrusive6detail7is_pow2Em(i64 noundef %0) #2 comdat {
  %2 = alloca i64, align 8
  store i64 %0, ptr %2, align 8, !tbaa !14
  %3 = load i64, ptr %2, align 8, !tbaa !14
  %4 = load i64, ptr %2, align 8, !tbaa !14
  %5 = sub i64 %4, 1
  %6 = and i64 %3, %5
  %7 = icmp eq i64 %6, 0
  ret i1 %7
}

; Function Attrs: mustprogress nounwind uwtable
define linkonce_odr hidden void @_ZN5boost9container3pmr16block_slist_baseINS1_18block_slist_headerEEC2Ev(ptr noundef nonnull align 8 dereferenceable(8) %0) unnamed_addr #0 comdat align 2 {
  %2 = alloca ptr, align 8
  store ptr %0, ptr %2, align 8, !tbaa !3
  %3 = load ptr, ptr %2, align 8
  %4 = getelementptr inbounds nuw %"class.boost::container::pmr::block_slist_base", ptr %3, i32 0, i32 0
  call void @_ZN5boost9intrusive23linear_slist_algorithmsINS_9container3pmr17slist_node_traitsEE11init_headerEPNS3_10slist_nodeE(ptr noundef %4) #11
  ret void
}

; Function Attrs: noinline noreturn nounwind uwtable
define linkonce_odr hidden void @__clang_call_terminate(ptr noundef %0) #5 comdat {
  %2 = call ptr @__cxa_begin_catch(ptr %0) #11
  call void @_ZSt9terminatev() #12
  unreachable
}

; Function Attrs: mustprogress uwtable
define void @_ZN5boost9container3pmr25monotonic_buffer_resource32increase_next_buffer_at_least_toEm(ptr noundef nonnull align 8 dereferenceable(64) %0, i64 noundef %1) #1 align 2 {
  %3 = alloca ptr, align 8
  %4 = alloca i64, align 8
  store ptr %0, ptr %3, align 8, !tbaa !3
  store i64 %1, ptr %4, align 8, !tbaa !14
  %5 = load ptr, ptr %3, align 8
  %6 = getelementptr inbounds nuw %"class.boost::container::pmr::monotonic_buffer_resource", ptr %5, i32 0, i32 4
  %7 = load i64, ptr %6, align 8, !tbaa !7
  %8 = load i64, ptr %4, align 8, !tbaa !14
  %9 = icmp ult i64 %7, %8
  br i1 %9, label %10, label %28

10:                                               ; preds = %2
  %11 = load i64, ptr %4, align 8, !tbaa !14
  %12 = call noundef zeroext i1 @_ZN5boost9intrusive6detail7is_pow2Em(i64 noundef %11)
  br i1 %12, label %13, label %16

13:                                               ; preds = %10
  %14 = load i64, ptr %4, align 8, !tbaa !14
  %15 = getelementptr inbounds nuw %"class.boost::container::pmr::monotonic_buffer_resource", ptr %5, i32 0, i32 4
  store i64 %14, ptr %15, align 8, !tbaa !7
  br label %27

16:                                               ; preds = %10
  %17 = load i64, ptr %4, align 8, !tbaa !14
  %18 = icmp ult i64 9223372036854775807, %17
  br i1 %18, label %19, label %22

19:                                               ; preds = %16
  %20 = load i64, ptr %4, align 8, !tbaa !14
  %21 = getelementptr inbounds nuw %"class.boost::container::pmr::monotonic_buffer_resource", ptr %5, i32 0, i32 4
  store i64 %20, ptr %21, align 8, !tbaa !7
  br label %26

22:                                               ; preds = %16
  %23 = load i64, ptr %4, align 8, !tbaa !14
  %24 = call noundef i64 @_ZN5boost9intrusive6detail9ceil_pow2Em(i64 noundef %23)
  %25 = getelementptr inbounds nuw %"class.boost::container::pmr::monotonic_buffer_resource", ptr %5, i32 0, i32 4
  store i64 %24, ptr %25, align 8, !tbaa !7
  br label %26

26:                                               ; preds = %22, %19
  br label %27

27:                                               ; preds = %26, %13
  br label %28

28:                                               ; preds = %27, %2
  ret void
}

; Function Attrs: mustprogress uwtable
define linkonce_odr hidden void @_ZN5boost9container3pmr11block_slistC2ERNS1_15memory_resourceE(ptr noundef nonnull align 8 dereferenceable(16) %0, ptr noundef nonnull align 8 dereferenceable(8) %1) unnamed_addr #1 comdat align 2 {
  %3 = alloca ptr, align 8
  %4 = alloca ptr, align 8
  store ptr %0, ptr %3, align 8, !tbaa !3
  store ptr %1, ptr %4, align 8, !tbaa !3
  %5 = load ptr, ptr %3, align 8
  call void @_ZN5boost9container3pmr16block_slist_baseINS1_18block_slist_headerEEC2Ev(ptr noundef nonnull align 8 dereferenceable(8) %5)
  %6 = getelementptr inbounds nuw %"class.boost::container::pmr::block_slist", ptr %5, i32 0, i32 1
  %7 = load ptr, ptr %4, align 8, !tbaa !3
  store ptr %7, ptr %6, align 8, !tbaa !3
  ret void
}

; Function Attrs: inlinehint mustprogress nounwind uwtable
define linkonce_odr hidden void @_ZN5boost9container3pmr15memory_resourceC2Ev(ptr noundef nonnull align 8 dereferenceable(8) %0) unnamed_addr #2 comdat align 2 {
  %2 = alloca ptr, align 8
  store ptr %0, ptr %2, align 8, !tbaa !3
  %3 = load ptr, ptr %2, align 8
  store ptr getelementptr inbounds inrange(-16, 40) ({ [7 x ptr] }, ptr @_ZTVN5boost9container3pmr15memory_resourceE, i32 0, i32 0, i32 2), ptr %3, align 8, !tbaa !15
  ret void
}

; Function Attrs: mustprogress nounwind uwtable
define void @_ZN5boost9container3pmr25monotonic_buffer_resourceC2EmPNS1_15memory_resourceE(ptr noundef nonnull align 8 dereferenceable(64) %0, i64 noundef %1, ptr noundef %2) unnamed_addr #0 align 2 personality ptr @__gxx_personality_v0 {
  %4 = alloca ptr, align 8
  %5 = alloca i64, align 8
  %6 = alloca ptr, align 8
  store ptr %0, ptr %4, align 8, !tbaa !3
  store i64 %1, ptr %5, align 8, !tbaa !14
  store ptr %2, ptr %6, align 8, !tbaa !3
  %7 = load ptr, ptr %4, align 8
  call void @_ZN5boost9container3pmr15memory_resourceC2Ev(ptr noundef nonnull align 8 dereferenceable(8) %7) #11
  store ptr getelementptr inbounds inrange(-16, 40) ({ [7 x ptr] }, ptr @_ZTVN5boost9container3pmr25monotonic_buffer_resourceE, i32 0, i32 0, i32 2), ptr %7, align 8, !tbaa !15
  %8 = getelementptr inbounds nuw %"class.boost::container::pmr::monotonic_buffer_resource", ptr %7, i32 0, i32 1
  %9 = load ptr, ptr %6, align 8, !tbaa !3
  %10 = icmp ne ptr %9, null
  br i1 %10, label %11, label %13

11:                                               ; preds = %3
  %12 = load ptr, ptr %6, align 8, !tbaa !3
  br label %15

13:                                               ; preds = %3
  %14 = call noundef ptr @_ZN5boost9container3pmr20get_default_resourceEv() #11
  br label %15

15:                                               ; preds = %13, %11
  %16 = phi ptr [ %12, %11 ], [ %14, %13 ]
  invoke void @_ZN5boost9container3pmr11block_slistC2ERNS1_15memory_resourceE(ptr noundef nonnull align 8 dereferenceable(16) %8, ptr noundef nonnull align 8 dereferenceable(8) %16)
          to label %17 unwind label %30

17:                                               ; preds = %15
  %18 = getelementptr inbounds nuw %"class.boost::container::pmr::monotonic_buffer_resource", ptr %7, i32 0, i32 2
  store ptr null, ptr %18, align 8, !tbaa !17
  %19 = getelementptr inbounds nuw %"class.boost::container::pmr::monotonic_buffer_resource", ptr %7, i32 0, i32 3
  store i64 0, ptr %19, align 8, !tbaa !18
  %20 = getelementptr inbounds nuw %"class.boost::container::pmr::monotonic_buffer_resource", ptr %7, i32 0, i32 4
  store i64 16, ptr %20, align 8, !tbaa !7
  %21 = getelementptr inbounds nuw %"class.boost::container::pmr::monotonic_buffer_resource", ptr %7, i32 0, i32 5
  store ptr null, ptr %21, align 8, !tbaa !19
  %22 = getelementptr inbounds nuw %"class.boost::container::pmr::monotonic_buffer_resource", ptr %7, i32 0, i32 6
  store i64 0, ptr %22, align 8, !tbaa !20
  %23 = load i64, ptr %5, align 8, !tbaa !14
  %24 = load i64, ptr %5, align 8, !tbaa !14
  %25 = icmp ne i64 %24, 0
  %26 = xor i1 %25, true
  %27 = zext i1 %26 to i64
  %28 = add i64 %23, %27
  invoke void @_ZN5boost9container3pmr25monotonic_buffer_resource32increase_next_buffer_at_least_toEm(ptr noundef nonnull align 8 dereferenceable(64) %7, i64 noundef %28)
          to label %29 unwind label %30

29:                                               ; preds = %17
  ret void

30:                                               ; preds = %17, %15
  %31 = landingpad { ptr, i32 }
          catch ptr null
  %32 = extractvalue { ptr, i32 } %31, 0
  call void @__clang_call_terminate(ptr %32) #12
  unreachable
}