; Function Attrs: mustprogress nounwind uwtable
define void @_ZN5boost9container3pmr25monotonic_buffer_resourceC2EmPNS1_15memory_resourceE(ptr nocapture noundef nonnull writeonly align 8 dereferenceable(64) %0, i64 noundef %1, ptr noundef %2) unnamed_addr #1 align 2 personality ptr @__gxx_personality_v0 {
  store ptr getelementptr inbounds inrange(-16, 40) (i8, ptr @_ZTVN5boost9container3pmr25monotonic_buffer_resourceE, i64 16), ptr %0, align 8, !tbaa !13
  %4 = getelementptr inbounds nuw i8, ptr %0, i64 8
  %.not = icmp eq ptr %2, null
  br i1 %.not, label %5, label %7

5:                                                ; preds = %3
  %6 = tail call noundef ptr @_ZN5boost9container3pmr20get_default_resourceEv() #15
  br label %7

7:                                                ; preds = %5, %3
  %8 = phi ptr [ %6, %5 ], [ %2, %3 ]
  store ptr null, ptr %4, align 8, !tbaa !15
  %9 = getelementptr inbounds nuw i8, ptr %0, i64 16
  store ptr %8, ptr %9, align 8, !tbaa !16
  %10 = getelementptr inbounds nuw i8, ptr %0, i64 24
  %11 = getelementptr inbounds nuw i8, ptr %0, i64 40
  tail call void @llvm.memset.p0.i64(ptr noundef nonnull align 8 dereferenceable(16) %10, i8 0, i64 16, i1 false)
  store i64 16, ptr %11, align 8, !tbaa !3
  %12 = getelementptr inbounds nuw i8, ptr %0, i64 48
  %13 = tail call i64 @llvm.umax.i64(i64 %1, i64 1)
  %14 = icmp ugt i64 %1, 16
  tail call void @llvm.memset.p0.i64(ptr noundef nonnull align 8 dereferenceable(16) %12, i8 0, i64 16, i1 false)
  br i1 %14, label %15, label %_ZN5boost9container3pmr25monotonic_buffer_resource32increase_next_buffer_at_least_toEm.exit

15:                                               ; preds = %7
  %16 = tail call range(i64 1, 65) i64 @llvm.ctpop.i64(i64 %13)
  %17 = icmp samesign ult i64 %16, 2
  %18 = icmp slt i64 %13, 0
  %or.cond.i = or i1 %18, %17
  br i1 %or.cond.i, label %.sink.split.i, label %19

19:                                               ; preds = %15
  %20 = add nsw i64 %13, -1
  %21 = tail call range(i64 0, 65) i64 @llvm.ctlz.i64(i64 %20, i1 false)
  %22 = sub nuw nsw i64 64, %21
  %23 = shl nuw i64 1, %22
  br label %.sink.split.i

.sink.split.i:                                    ; preds = %19, %15
  %.sink.i = phi i64 [ %23, %19 ], [ %13, %15 ]
  store i64 %.sink.i, ptr %11, align 8, !tbaa !3
  br label %_ZN5boost9container3pmr25monotonic_buffer_resource32increase_next_buffer_at_least_toEm.exit

_ZN5boost9container3pmr25monotonic_buffer_resource32increase_next_buffer_at_least_toEm.exit: ; preds = %.sink.split.i, %7
  ret void
}